target datalayout = "e-m:e-p270:32:32-p271:32:32-p272:64:64-i64:64-i128:128-f80:128-n8:16:32:64-S128"
target triple = "x86_64-pc-linux-gnu"

%"class.std::__cxx11::basic_string" = type { %"struct.std::__cxx11::basic_string<char>::_Alloc_hider", i64, %union.anon }
%"struct.std::__cxx11::basic_string<char>::_Alloc_hider" = type { ptr }
%union.anon = type { i64, [8 x i8] }
%struct.pme_setup_t = type { float, float, float, float, [3 x i32], float, float, float, ptr, i32, double }

@.str.21 = private unnamed_addr constant [49 x i8] c"%-11s%10s pme grid %d %d %d, coulomb cutoff %.3f\00", align 1
@.str.22 = private unnamed_addr constant [16 x i8] c": %.1f M-cycles\00", align 1
@.str.23 = private unnamed_addr constant [5 x i8] c"\0D%s\0A\00", align 1
@.str.24 = private unnamed_addr constant [4 x i8] c"%s\0A\00", align 1

; Function Attrs: mustprogress uwtable
define internal void @_ZL10print_gridP8_IO_FILES0_PKcS2_PK11pme_setup_td(ptr noundef %0, ptr noundef %1, ptr noundef %2, ptr noundef %3, ptr noundef %4, double noundef %5) #1 personality ptr @__gxx_personality_v0 {
  %7 = alloca ptr, align 8
  %8 = alloca ptr, align 8
  %9 = alloca ptr, align 8
  %10 = alloca ptr, align 8
  %11 = alloca ptr, align 8
  %12 = alloca double, align 8
  %13 = alloca %"class.std::__cxx11::basic_string", align 8
  %14 = alloca %"class.std::__cxx11::basic_string", align 8
  %15 = alloca ptr, align 8
  %16 = alloca i32, align 4
  store ptr %0, ptr %7, align 8
  store ptr %1, ptr %8, align 8
  store ptr %2, ptr %9, align 8
  store ptr %3, ptr %10, align 8
  store ptr %4, ptr %11, align 8
  store double %5, ptr %12, align 8
  %17 = load ptr, ptr %9, align 8
  %18 = load ptr, ptr %10, align 8
  %19 = load ptr, ptr %11, align 8
  %20 = getelementptr inbounds %struct.pme_setup_t, ptr %19, i32 0, i32 4
  %21 = getelementptr inbounds [3 x i32], ptr %20, i64 0, i64 0
  %22 = load i32, ptr %21, align 8
  %23 = load ptr, ptr %11, align 8
  %24 = getelementptr inbounds %struct.pme_setup_t, ptr %23, i32 0, i32 4
  %25 = getelementptr inbounds [3 x i32], ptr %24, i64 0, i64 1
  %26 = load i32, ptr %25, align 4
  %27 = load ptr, ptr %11, align 8
  %28 = getelementptr inbounds %struct.pme_setup_t, ptr %27, i32 0, i32 4
  %29 = getelementptr inbounds [3 x i32], ptr %28, i64 0, i64 2
  %30 = load i32, ptr %29, align 8
  %31 = load ptr, ptr %11, align 8
  %32 = getelementptr inbounds %struct.pme_setup_t, ptr %31, i32 0, i32 0
  %33 = load float, ptr %32, align 8
  %34 = fpext float %33 to double
  call void (ptr, ptr, ...) @_ZN3gmx12formatStringB5cxx11EPKcz(ptr dead_on_unwind writable sret(%"class.std::__cxx11::basic_string") align 8 %13, ptr noundef @.str.21, ptr noundef %17, ptr noundef %18, i32 noundef %22, i32 noundef %26, i32 noundef %30, double noundef %34)
  %35 = load double, ptr %12, align 8
  %36 = fcmp oge double %35, 0.000000e+00
  br i1 %36, label %37, label %51

37:                                               ; preds = %6
  %38 = load double, ptr %12, align 8
  %39 = fmul double %38, 0x3EB0C6F7A0B5ED8D
  invoke void (ptr, ptr, ...) @_ZN3gmx12formatStringB5cxx11EPKcz(ptr dead_on_unwind writable sret(%"class.std::__cxx11::basic_string") align 8 %14, ptr noundef @.str.22, double noundef %39)
          to label %40 unwind label %43

40:                                               ; preds = %37
  %41 = invoke noundef nonnull align 8 dereferenceable(32) ptr @_ZNSt7__cxx1112basic_stringIcSt11char_traitsIcESaIcEEpLERKS4_(ptr noundef nonnull align 8 dereferenceable(32) %13, ptr noundef nonnull align 8 dereferenceable(32) %14)
          to label %42 unwind label %47

42:                                               ; preds = %40
  call void @_ZNSt7__cxx1112basic_stringIcSt11char_traitsIcESaIcEED1Ev(ptr noundef nonnull align 8 dereferenceable(32) %14) #12
  br label %51

43:                                               ; preds = %54, %37
  %44 = landingpad { ptr, i32 }
          cleanup
  %45 = extractvalue { ptr, i32 } %44, 0
  store ptr %45, ptr %15, align 8
  %46 = extractvalue { ptr, i32 } %44, 1
  store i32 %46, ptr %16, align 4
  br label %69

47:                                               ; preds = %40
  %48 = landingpad { ptr, i32 }
          cleanup
  %49 = extractvalue { ptr, i32 } %48, 0
  store ptr %49, ptr %15, align 8
  %50 = extractvalue { ptr, i32 } %48, 1
  store i32 %50, ptr %16, align 4
  call void @_ZNSt7__cxx1112basic_stringIcSt11char_traitsIcESaIcEED1Ev(ptr noundef nonnull align 8 dereferenceable(32) %14) #12
  br label %69

51:                                               ; preds = %42, %6
  %52 = load ptr, ptr %7, align 8
  %53 = icmp ne ptr %52, null
  br i1 %53, label %54, label %61

54:                                               ; preds = %51
  %55 = load ptr, ptr %7, align 8
  %56 = call noundef ptr @_ZNKSt7__cxx1112basic_stringIcSt11char_traitsIcESaIcEE5c_strEv(ptr noundef nonnull align 8 dereferenceable(32) %13) #12
  %57 = call i32 (ptr, ptr, ...) @fprintf(ptr noundef %55, ptr noundef @.str.23, ptr noundef %56) #12
  %58 = load ptr, ptr %7, align 8
  %59 = invoke i32 @fflush(ptr noundef %58)
          to label %60 unwind label %43

60:                                               ; preds = %54
  br label %61

61:                                               ; preds = %60, %51
  %62 = load ptr, ptr %8, align 8
  %63 = icmp ne ptr %62, null
  br i1 %63, label %64, label %68

64:                                               ; preds = %61
  %65 = load ptr, ptr %8, align 8
  %66 = call noundef ptr @_ZNKSt7__cxx1112basic_stringIcSt11char_traitsIcESaIcEE5c_strEv(ptr noundef nonnull align 8 dereferenceable(32) %13) #12
  %67 = call i32 (ptr, ptr, ...) @fprintf(ptr noundef %65, ptr noundef @.str.24, ptr noundef %66) #12
  br label %68

68:                                               ; preds = %64, %61
  call void @_ZNSt7__cxx1112basic_stringIcSt11char_traitsIcESaIcEED1Ev(ptr noundef nonnull align 8 dereferenceable(32) %13) #12
  ret void

69:                                               ; preds = %47, %43
  call void @_ZNSt7__cxx1112basic_stringIcSt11char_traitsIcESaIcEED1Ev(ptr noundef nonnull align 8 dereferenceable(32) %13) #12
  br label %70

70:                                               ; preds = %69
  %71 = load ptr, ptr %15, align 8
  %72 = load i32, ptr %16, align 4
  %73 = insertvalue { ptr, i32 } poison, ptr %71, 0
  %74 = insertvalue { ptr, i32 } %73, i32 %72, 1
  resume { ptr, i32 } %74
}