; Function Attrs: mustprogress uwtable
define internal fastcc void @_ZL10print_gridP8_IO_FILES0_PKcS2_PK11pme_setup_td(ptr noundef %0, ptr noundef %1, ptr noundef %2, ptr noundef %3, ptr nocapture noundef readonly %4, double noundef %5) unnamed_addr #1 personality ptr @__gxx_personality_v0 {
  %7 = alloca %"class.std::__cxx11::basic_string", align 8
  %8 = alloca %"class.std::__cxx11::basic_string", align 8
  %9 = getelementptr inbounds i8, ptr %4, i64 16
  %10 = load i32, ptr %9, align 8
  %11 = getelementptr inbounds i8, ptr %4, i64 20
  %12 = load i32, ptr %11, align 4
  %13 = getelementptr inbounds i8, ptr %4, i64 24
  %14 = load i32, ptr %13, align 8
  %15 = load float, ptr %4, align 8
  %16 = fpext float %15 to double
  call void (ptr, ptr, ...) @_ZN3gmx12formatStringB5cxx11EPKcz(ptr dead_on_unwind nonnull writable sret(%"class.std::__cxx11::basic_string") align 8 %7, ptr noundef nonnull @.str.21, ptr noundef %2, ptr noundef %3, i32 noundef %10, i32 noundef %12, i32 noundef %14, double noundef %16)
  %17 = fcmp ult double %5, 0.000000e+00
  br i1 %17, label %27, label %18

18:                                               ; preds = %6
  %19 = fmul double %5, 0x3EB0C6F7A0B5ED8D
  invoke void (ptr, ptr, ...) @_ZN3gmx12formatStringB5cxx11EPKcz(ptr dead_on_unwind nonnull writable sret(%"class.std::__cxx11::basic_string") align 8 %8, ptr noundef nonnull @.str.22, double noundef %19)
          to label %20 unwind label %23

20:                                               ; preds = %18
  %21 = invoke noundef nonnull align 8 dereferenceable(32) ptr @_ZNSt7__cxx1112basic_stringIcSt11char_traitsIcESaIcEEpLERKS4_(ptr noundef nonnull align 8 dereferenceable(32) %7, ptr noundef nonnull align 8 dereferenceable(32) %8)
          to label %22 unwind label %25

22:                                               ; preds = %20
  call void @_ZNSt7__cxx1112basic_stringIcSt11char_traitsIcESaIcEED1Ev(ptr noundef nonnull align 8 dereferenceable(32) %8) #22
  br label %27

23:                                               ; preds = %18
  %24 = landingpad { ptr, i32 }
          cleanup
  br label %37

25:                                               ; preds = %20
  %26 = landingpad { ptr, i32 }
          cleanup
  call void @_ZNSt7__cxx1112basic_stringIcSt11char_traitsIcESaIcEED1Ev(ptr noundef nonnull align 8 dereferenceable(32) %8) #22
  br label %37

27:                                               ; preds = %22, %6
  %.not = icmp eq ptr %0, null
  br i1 %.not, label %32, label %28

28:                                               ; preds = %27
  %29 = call noundef ptr @_ZNKSt7__cxx1112basic_stringIcSt11char_traitsIcESaIcEE5c_strEv(ptr noundef nonnull align 8 dereferenceable(32) %7) #22
  %30 = call i32 (ptr, ptr, ...) @fprintf(ptr noundef nonnull %0, ptr noundef nonnull @.str.23, ptr noundef %29) #22
  %31 = call i32 @fflush(ptr noundef nonnull %0)
  br label %32

32:                                               ; preds = %28, %27
  %.not19 = icmp eq ptr %1, null
  br i1 %.not19, label %36, label %33

33:                                               ; preds = %32
  %34 = call noundef ptr @_ZNKSt7__cxx1112basic_stringIcSt11char_traitsIcESaIcEE5c_strEv(ptr noundef nonnull align 8 dereferenceable(32) %7) #22
  %35 = call i32 (ptr, ptr, ...) @fprintf(ptr noundef nonnull %1, ptr noundef nonnull @.str.24, ptr noundef %34) #22
  br label %36

36:                                               ; preds = %33, %32
  call void @_ZNSt7__cxx1112basic_stringIcSt11char_traitsIcESaIcEED1Ev(ptr noundef nonnull align 8 dereferenceable(32) %7) #22
  ret void

37:                                               ; preds = %25, %23
  %.pn = phi { ptr, i32 } [ %26, %25 ], [ %24, %23 ]
  call void @_ZNSt7__cxx1112basic_stringIcSt11char_traitsIcESaIcEED1Ev(ptr noundef nonnull align 8 dereferenceable(32) %7) #22
  resume { ptr, i32 } %.pn
}